; ModuleID = 'source-C-CXX/56/2210.c'
source_filename = "source-C-CXX/56/2210.c"
target datalayout = "e-m:e-p270:32:32-p271:32:32-p272:64:64-i64:64-f80:128-n8:16:32:64-S128"
target triple = "x86_64-pc-linux-gnu"

@.str = private unnamed_addr constant [3 x i8] c"%d\00", align 1
@.str.1 = private unnamed_addr constant [3 x i8] c"%s\00", align 1
@.str.3 = private unnamed_addr constant [4 x i8] c"%c\0A\00", align 1

; Function Attrs: nofree nounwind sspstrong uwtable
define dso_local void @main() local_unnamed_addr #0 {
  %1 = alloca i32, align 4
  %2 = alloca [50 x [20 x i8]], align 16
  %3 = bitcast i32* %1 to i8*
  call void @llvm.lifetime.start.p0i8(i64 4, i8* nonnull %3) #5
  %4 = getelementptr inbounds [50 x [20 x i8]], [50 x [20 x i8]]* %2, i64 0, i64 0, i64 0
  call void @llvm.lifetime.start.p0i8(i64 1000, i8* nonnull %4) #5
  %5 = call i32 (i8*, ...) @__isoc99_scanf(i8* getelementptr inbounds ([3 x i8], [3 x i8]* @.str, i64 0, i64 0), i32* nonnull %1)
  %6 = load i32, i32* %1, align 4, !tbaa !5
  %7 = icmp sgt i32 %6, 0
  br i1 %7, label %10, label %68

8:                                                ; preds = %10
  %9 = icmp sgt i32 %15, 0
  br i1 %9, label %18, label %68

10:                                               ; preds = %0, %10
  %11 = phi i64 [ %14, %10 ], [ 0, %0 ]
  %12 = getelementptr inbounds [50 x [20 x i8]], [50 x [20 x i8]]* %2, i64 0, i64 %11, i64 0
  %13 = call i32 (i8*, ...) @__isoc99_scanf(i8* getelementptr inbounds ([3 x i8], [3 x i8]* @.str.1, i64 0, i64 0), i8* nonnull %12)
  %14 = add nuw nsw i64 %11, 1
  %15 = load i32, i32* %1, align 4, !tbaa !5
  %16 = sext i32 %15 to i64
  %17 = icmp slt i64 %14, %16
  br i1 %17, label %10, label %8, !llvm.loop !9

18:                                               ; preds = %8, %58
  %19 = phi i64 [ %64, %58 ], [ 0, %8 ]
  %20 = getelementptr inbounds [50 x [20 x i8]], [50 x [20 x i8]]* %2, i64 0, i64 %19, i64 0
  %21 = call i64 @strlen(i8* noundef nonnull %20) #6
  %22 = trunc i64 %21 to i32
  %23 = shl i64 %21, 32
  %24 = add i64 %23, -4294967296
  %25 = ashr exact i64 %24, 32
  %26 = getelementptr inbounds [50 x [20 x i8]], [50 x [20 x i8]]* %2, i64 0, i64 %19, i64 %25
  %27 = load i8, i8* %26, align 1, !tbaa !11
  switch i8 %27, label %28 [
    i8 114, label %33
    i8 121, label %33
  ]

28:                                               ; preds = %18
  %29 = add i32 %22, -4
  %30 = icmp sgt i32 %22, 4
  br i1 %30, label %31, label %56

31:                                               ; preds = %28
  %32 = zext i32 %29 to i64
  br label %48

33:                                               ; preds = %18, %18
  %34 = add nsw i32 %22, -3
  %35 = icmp sgt i32 %22, 3
  br i1 %35, label %38, label %36

36:                                               ; preds = %33
  %37 = sext i32 %34 to i64
  br label %58

38:                                               ; preds = %33
  %39 = zext i32 %34 to i64
  br label %40

40:                                               ; preds = %38, %40
  %41 = phi i64 [ 0, %38 ], [ %46, %40 ]
  %42 = getelementptr inbounds [50 x [20 x i8]], [50 x [20 x i8]]* %2, i64 0, i64 %19, i64 %41
  %43 = load i8, i8* %42, align 1, !tbaa !11
  %44 = sext i8 %43 to i32
  %45 = call i32 @putchar(i32 %44)
  %46 = add nuw nsw i64 %41, 1
  %47 = icmp eq i64 %46, %39
  br i1 %47, label %58, label %40, !llvm.loop !12

48:                                               ; preds = %31, %48
  %49 = phi i64 [ 0, %31 ], [ %54, %48 ]
  %50 = getelementptr inbounds [50 x [20 x i8]], [50 x [20 x i8]]* %2, i64 0, i64 %19, i64 %49
  %51 = load i8, i8* %50, align 1, !tbaa !11
  %52 = sext i8 %51 to i32
  %53 = call i32 @putchar(i32 %52)
  %54 = add nuw nsw i64 %49, 1
  %55 = icmp eq i64 %54, %32
  br i1 %55, label %56, label %48, !llvm.loop !13

56:                                               ; preds = %48, %28
  %57 = sext i32 %29 to i64
  br label %58

58:                                               ; preds = %40, %36, %56
  %59 = phi i64 [ %57, %56 ], [ %37, %36 ], [ %39, %40 ]
  %60 = getelementptr inbounds [50 x [20 x i8]], [50 x [20 x i8]]* %2, i64 0, i64 %19, i64 %59
  %61 = load i8, i8* %60, align 1, !tbaa !11
  %62 = sext i8 %61 to i32
  %63 = call i32 (i8*, ...) @printf(i8* nonnull dereferenceable(1) getelementptr inbounds ([4 x i8], [4 x i8]* @.str.3, i64 0, i64 0), i32 %62)
  %64 = add nuw nsw i64 %19, 1
  %65 = load i32, i32* %1, align 4, !tbaa !5
  %66 = sext i32 %65 to i64
  %67 = icmp slt i64 %64, %66
  br i1 %67, label %18, label %68, !llvm.loop !14

68:                                               ; preds = %58, %0, %8
  call void @llvm.lifetime.end.p0i8(i64 1000, i8* nonnull %4) #5
  call void @llvm.lifetime.end.p0i8(i64 4, i8* nonnull %3) #5
  ret void
}

; Function Attrs: argmemonly mustprogress nofree nosync nounwind willreturn
declare void @llvm.lifetime.start.p0i8(i64 immarg, i8* nocapture) #1

; Function Attrs: nofree nounwind
declare noundef i32 @__isoc99_scanf(i8* nocapture noundef readonly, ...) local_unnamed_addr #2

; Function Attrs: argmemonly mustprogress nofree nounwind readonly willreturn
declare i64 @strlen(i8* nocapture) local_unnamed_addr #3

; Function Attrs: nofree nounwind
declare noundef i32 @printf(i8* nocapture noundef readonly, ...) local_unnamed_addr #2

; Function Attrs: argmemonly mustprogress nofree nosync nounwind willreturn
declare void @llvm.lifetime.end.p0i8(i64 immarg, i8* nocapture) #1

; Function Attrs: nofree nounwind
declare noundef i32 @putchar(i32 noundef) local_unnamed_addr #4


!llvm.module.flags = !{!0, !1, !2, !3}
!llvm.ident = !{!4}

!0 = !{i32 1, !"wchar_size", i32 4}
!1 = !{i32 7, !"PIC Level", i32 2}
!2 = !{i32 7, !"PIE Level", i32 2}
!3 = !{i32 7, !"uwtable", i32 1}
!4 = !{!"clang version 13.0.0"}
!5 = !{!6, !6, i64 0}
!6 = !{!"int", !7, i64 0}
!7 = !{!"omnipotent char", !8, i64 0}
!8 = !{!"Simple C/C++ TBAA"}
!9 = distinct !{!9, !10}
!10 = !{!"llvm.loop.mustprogress"}
!11 = !{!7, !7, i64 0}
!12 = distinct !{!12, !10}
!13 = distinct !{!13, !10}
!14 = distinct !{!14, !10}
